target datalayout = "e-m:e-p270:32:32-p271:32:32-p272:64:64-i64:64-i128:128-f80:128-n8:16:32:64-S128"
target triple = "x86_64-pc-linux-gnu"

%struct.sfparse_parser = type { ptr, ptr, i32 }
%struct.sfparse_value = type { i32, i32, %union.anon }
%union.anon = type { %struct.sfparse_decimal }
%struct.sfparse_decimal = type { i64, i64 }

@.str.1 = private unnamed_addr constant [107 x i8] c"generated/home/dtcxzyw/WorkSpace/Projects/compilers/llvm-opt-benchmark/bench/nghttp2/nghttp2/lib/sfparse.c\00", align 1
@.str.8 = private unnamed_addr constant [17 x i8] c"'?' == *sfp->pos\00", align 1
@__PRETTY_FUNCTION__.parser_boolean = private unnamed_addr constant [54 x i8] c"int parser_boolean(sfparse_parser *, sfparse_value *)\00", align 1

; Function Attrs: nounwind uwtable
define internal i32 @parser_eof(ptr noundef %0) #0 {
  %2 = alloca ptr, align 8
  store ptr %0, ptr %2, align 8, !tbaa !3
  %3 = load ptr, ptr %2, align 8, !tbaa !3
  %4 = getelementptr inbounds nuw %struct.sfparse_parser, ptr %3, i32 0, i32 0
  %5 = load ptr, ptr %4, align 8, !tbaa !17
  %6 = load ptr, ptr %2, align 8, !tbaa !3
  %7 = getelementptr inbounds nuw %struct.sfparse_parser, ptr %6, i32 0, i32 1
  %8 = load ptr, ptr %7, align 8, !tbaa !22
  %9 = icmp eq ptr %5, %8
  %10 = zext i1 %9 to i32
  ret i32 %10
}

; Function Attrs: nounwind uwtable
define internal i32 @parser_boolean(ptr noundef %0, ptr noundef %1) #0 {
  %3 = alloca i32, align 4
  %4 = alloca ptr, align 8
  %5 = alloca ptr, align 8
  %6 = alloca i32, align 4
  %7 = alloca i32, align 4
  store ptr %0, ptr %4, align 8, !tbaa !3
  store ptr %1, ptr %5, align 8, !tbaa !10
  call void @llvm.lifetime.start.p0(i64 4, ptr %6) #5
  %8 = load ptr, ptr %4, align 8, !tbaa !3
  %9 = getelementptr inbounds nuw %struct.sfparse_parser, ptr %8, i32 0, i32 0
  %10 = load ptr, ptr %9, align 8, !tbaa !17
  %11 = load i8, ptr %10, align 1, !tbaa !18
  %12 = zext i8 %11 to i32
  %13 = icmp eq i32 63, %12
  br i1 %13, label %14, label %15

14:                                               ; preds = %2
  br label %16

15:                                               ; preds = %2
  call void @__assert_fail(ptr noundef @.str.8, ptr noundef @.str.1, i32 noundef 987, ptr noundef @__PRETTY_FUNCTION__.parser_boolean) #6
  unreachable

16:                                               ; preds = %14
  %17 = load ptr, ptr %4, align 8, !tbaa !3
  %18 = getelementptr inbounds nuw %struct.sfparse_parser, ptr %17, i32 0, i32 0
  %19 = load ptr, ptr %18, align 8, !tbaa !17
  %20 = getelementptr inbounds nuw i8, ptr %19, i32 1
  store ptr %20, ptr %18, align 8, !tbaa !17
  %21 = load ptr, ptr %4, align 8, !tbaa !3
  %22 = call i32 @parser_eof(ptr noundef %21)
  %23 = icmp ne i32 %22, 0
  br i1 %23, label %24, label %25

24:                                               ; preds = %16
  store i32 -1, ptr %3, align 4
  store i32 1, ptr %7, align 4
  br label %50

25:                                               ; preds = %16
  %26 = load ptr, ptr %4, align 8, !tbaa !3
  %27 = getelementptr inbounds nuw %struct.sfparse_parser, ptr %26, i32 0, i32 0
  %28 = load ptr, ptr %27, align 8, !tbaa !17
  %29 = load i8, ptr %28, align 1, !tbaa !18
  %30 = zext i8 %29 to i32
  switch i32 %30, label %33 [
    i32 48, label %31
    i32 49, label %32
  ]

31:                                               ; preds = %25
  store i32 0, ptr %6, align 4, !tbaa !16
  br label %34

32:                                               ; preds = %25
  store i32 1, ptr %6, align 4, !tbaa !16
  br label %34

33:                                               ; preds = %25
  store i32 -1, ptr %3, align 4
  store i32 1, ptr %7, align 4
  br label %50

34:                                               ; preds = %32, %31
  %35 = load ptr, ptr %4, align 8, !tbaa !3
  %36 = getelementptr inbounds nuw %struct.sfparse_parser, ptr %35, i32 0, i32 0
  %37 = load ptr, ptr %36, align 8, !tbaa !17
  %38 = getelementptr inbounds nuw i8, ptr %37, i32 1
  store ptr %38, ptr %36, align 8, !tbaa !17
  %39 = load ptr, ptr %5, align 8, !tbaa !10
  %40 = icmp ne ptr %39, null
  br i1 %40, label %41, label %49

41:                                               ; preds = %34
  %42 = load ptr, ptr %5, align 8, !tbaa !10
  %43 = getelementptr inbounds nuw %struct.sfparse_value, ptr %42, i32 0, i32 0
  store i32 0, ptr %43, align 8, !tbaa !19
  %44 = load ptr, ptr %5, align 8, !tbaa !10
  %45 = getelementptr inbounds nuw %struct.sfparse_value, ptr %44, i32 0, i32 1
  store i32 0, ptr %45, align 4, !tbaa !21
  %46 = load i32, ptr %6, align 4, !tbaa !16
  %47 = load ptr, ptr %5, align 8, !tbaa !10
  %48 = getelementptr inbounds nuw %struct.sfparse_value, ptr %47, i32 0, i32 2
  store i32 %46, ptr %48, align 8, !tbaa !18
  br label %49

49:                                               ; preds = %41, %34
  store i32 0, ptr %3, align 4
  store i32 1, ptr %7, align 4
  br label %50

50:                                               ; preds = %49, %33, %24
  call void @llvm.lifetime.end.p0(i64 4, ptr %6) #5
  %51 = load i32, ptr %3, align 4
  ret i32 %51
}