; Function Attrs: nounwind uwtable
define internal fastcc range(i32 -1, 1) i32 @parser_boolean(ptr noundef captures(none) %0, ptr noundef writeonly %1) unnamed_addr #0 {
  %3 = load ptr, ptr %0, align 8, !tbaa !10
  %4 = load i8, ptr %3, align 1, !tbaa !12
  %5 = icmp eq i8 %4, 63
  br i1 %5, label %7, label %6

6:                                                ; preds = %2
  tail call void @__assert_fail(ptr noundef nonnull @.str.8, ptr noundef nonnull @.str.1, i32 noundef 987, ptr noundef nonnull @__PRETTY_FUNCTION__.parser_boolean) #8
  unreachable

7:                                                ; preds = %2
  %8 = getelementptr inbounds nuw i8, ptr %3, i64 1
  store ptr %8, ptr %0, align 8, !tbaa !10
  %9 = getelementptr i8, ptr %0, i64 8
  %.val13 = load ptr, ptr %9, align 8, !tbaa !11
  %.not = icmp eq ptr %8, %.val13
  br i1 %.not, label %18, label %10

10:                                               ; preds = %7
  %11 = load i8, ptr %8, align 1, !tbaa !12
  switch i8 %11, label %18 [
    i8 48, label %13
    i8 49, label %12
  ]

12:                                               ; preds = %10
  br label %13

13:                                               ; preds = %10, %12
  %.0 = phi i32 [ 1, %12 ], [ 0, %10 ]
  %14 = getelementptr inbounds nuw i8, ptr %3, i64 2
  store ptr %14, ptr %0, align 8, !tbaa !10
  %.not12 = icmp eq ptr %1, null
  br i1 %.not12, label %18, label %15

15:                                               ; preds = %13
  store i32 0, ptr %1, align 8, !tbaa !15
  %16 = getelementptr inbounds nuw i8, ptr %1, i64 4
  store i32 0, ptr %16, align 4, !tbaa !17
  %17 = getelementptr inbounds nuw i8, ptr %1, i64 8
  store i32 %.0, ptr %17, align 8, !tbaa !12
  br label %18

18:                                               ; preds = %13, %15, %10, %7
  %.010 = phi i32 [ -1, %7 ], [ -1, %10 ], [ 0, %15 ], [ 0, %13 ]
  ret i32 %.010
}